
libwrappers.o:     file format elf64-x86-64


Disassembly of section .text:

0000000000000000 <sys_getresuid>:
   0:	55                   	push   rbp
   1:	48 89 e5             	mov    rbp,rsp
   4:	48 83 ec 20          	sub    rsp,0x20
   8:	48 89 7d f8          	mov    QWORD PTR [rbp-0x8],rdi
   c:	48 89 75 f0          	mov    QWORD PTR [rbp-0x10],rsi
  10:	48 89 55 e8          	mov    QWORD PTR [rbp-0x18],rdx
  14:	48 8b 55 e8          	mov    rdx,QWORD PTR [rbp-0x18]
  18:	48 8b 4d f0          	mov    rcx,QWORD PTR [rbp-0x10]
  1c:	48 8b 45 f8          	mov    rax,QWORD PTR [rbp-0x8]
  20:	48 89 ce             	mov    rsi,rcx
  23:	48 89 c7             	mov    rdi,rax
  26:	e8 00 00 00 00       	call   2b <sys_getresuid+0x2b>
  2b:	c9                   	leave  
  2c:	c3                   	ret    

000000000000002d <sys_getresgid>:
  2d:	55                   	push   rbp
  2e:	48 89 e5             	mov    rbp,rsp
  31:	48 83 ec 20          	sub    rsp,0x20
  35:	48 89 7d f8          	mov    QWORD PTR [rbp-0x8],rdi
  39:	48 89 75 f0          	mov    QWORD PTR [rbp-0x10],rsi
  3d:	48 89 55 e8          	mov    QWORD PTR [rbp-0x18],rdx
  41:	48 8b 55 e8          	mov    rdx,QWORD PTR [rbp-0x18]
  45:	48 8b 4d f0          	mov    rcx,QWORD PTR [rbp-0x10]
  49:	48 8b 45 f8          	mov    rax,QWORD PTR [rbp-0x8]
  4d:	48 89 ce             	mov    rsi,rcx
  50:	48 89 c7             	mov    rdi,rax
  53:	e8 00 00 00 00       	call   58 <sys_getresgid+0x2b>
  58:	c9                   	leave  
  59:	c3                   	ret    

000000000000005a <sys_setresgid>:
  5a:	55                   	push   rbp
  5b:	48 89 e5             	mov    rbp,rsp
  5e:	48 83 ec 10          	sub    rsp,0x10
  62:	89 7d fc             	mov    DWORD PTR [rbp-0x4],edi
  65:	89 75 f8             	mov    DWORD PTR [rbp-0x8],esi
  68:	89 55 f4             	mov    DWORD PTR [rbp-0xc],edx
  6b:	ba 04 00 00 00       	mov    edx,0x4
  70:	be 00 00 00 00       	mov    esi,0x0
  75:	bf 01 00 00 00       	mov    edi,0x1
  7a:	e8 00 00 00 00       	call   7f <sys_setresgid+0x25>
  7f:	8b 55 f4             	mov    edx,DWORD PTR [rbp-0xc]
  82:	8b 4d f8             	mov    ecx,DWORD PTR [rbp-0x8]
  85:	8b 45 fc             	mov    eax,DWORD PTR [rbp-0x4]
  88:	89 ce                	mov    esi,ecx
  8a:	89 c7                	mov    edi,eax
  8c:	e8 00 00 00 00       	call   91 <sys_setresgid+0x37>
  91:	c9                   	leave  
  92:	c3                   	ret    

0000000000000093 <sys_setresuid>:
  93:	55                   	push   rbp
  94:	48 89 e5             	mov    rbp,rsp
  97:	48 83 ec 10          	sub    rsp,0x10
  9b:	89 7d fc             	mov    DWORD PTR [rbp-0x4],edi
  9e:	89 75 f8             	mov    DWORD PTR [rbp-0x8],esi
  a1:	89 55 f4             	mov    DWORD PTR [rbp-0xc],edx
  a4:	8b 55 f4             	mov    edx,DWORD PTR [rbp-0xc]
  a7:	8b 4d f8             	mov    ecx,DWORD PTR [rbp-0x8]
  aa:	8b 45 fc             	mov    eax,DWORD PTR [rbp-0x4]
  ad:	89 ce                	mov    esi,ecx
  af:	89 c7                	mov    edi,eax
  b1:	e8 00 00 00 00       	call   b6 <sys_setresuid+0x23>
  b6:	c9                   	leave  
  b7:	c3                   	ret    
